target datalayout = "e-m:e-p270:32:32-p271:32:32-p272:64:64-i64:64-i128:128-f80:128-n8:16:32:64-S128"
target triple = "x86_64-pc-linux-gnu"

%struct.State = type { i32, i32, i32, i32 }
%struct.AVRational = type { i32, i32 }
%struct.AVCodecContext = type { ptr, i32, i32, ptr, i32, i32, ptr, ptr, ptr, i64, i32, i32, ptr, i32, %struct.AVRational, %struct.AVRational, %struct.AVRational, i32, i32, i32, i32, i32, %struct.AVRational, i32, i32, i32, i32, i32, i32, i32, i32, i32, i32, i32, ptr, ptr, i32, float, float, float, float, float, float, float, float, float, i32, i32, i32, i32, i32, i32, i32, i32, i32, i32, i32, i32, ptr, ptr, ptr, i32, i32, i32, i32, i32, i32, i32, i32, i32, i32, %struct.AVChannelLayout, i32, i32, i32, i32, i32, i32, i32, i32, ptr, i32, i32, i32, float, float, i32, i32, i32, i32, i32, ptr, i64, i64, float, float, i32, i32, ptr, ptr, i32, i32, i32, i32, i32, ptr, ptr, ptr, ptr, i32, i32, [8 x i64], i32, i32, i32, i32, i32, i32, i32, ptr, ptr, i32, i32, i32, i32, i32, i32, i32, i32, i32, i32, ptr, ptr, i32, i32, ptr, ptr, ptr, ptr, i32, i32, i64, i32, i32, i64, ptr, i64, ptr, i32, ptr, i32 }
%struct.AVChannelLayout = type { i32, i32, %union.anon.0, ptr }
%union.anon.0 = type { i64 }
%struct.AVFrame = type { [8 x ptr], [8 x i32], ptr, i32, i32, i32, i32, i32, %struct.AVRational, i64, i64, %struct.AVRational, i32, ptr, i32, i32, [8 x ptr], ptr, i32, ptr, i32, i32, i32, i32, i32, i32, i32, i64, ptr, i32, ptr, ptr, i64, i64, i64, i64, ptr, %struct.AVChannelLayout, i64 }

; Function Attrs: nounwind uwtable
define internal void @put_lines_bits(ptr noundef %0, i32 noundef %1, i32 noundef %2, i32 noundef %3, ptr noundef %4, ptr noundef %5, ptr noundef %6) #0 {
  %8 = alloca ptr, align 8
  %9 = alloca i32, align 4
  %10 = alloca i32, align 4
  %11 = alloca i32, align 4
  %12 = alloca ptr, align 8
  %13 = alloca ptr, align 8
  %14 = alloca ptr, align 8
  %15 = alloca i32, align 4
  %16 = alloca i32, align 4
  %17 = alloca i32, align 4
  %18 = alloca i32, align 4
  %19 = alloca i32, align 4
  %20 = alloca i32, align 4
  store ptr %0, ptr %8, align 8, !tbaa !4
  store i32 %1, ptr %9, align 4, !tbaa !25
  store i32 %2, ptr %10, align 4, !tbaa !25
  store i32 %3, ptr %11, align 4, !tbaa !25
  store ptr %4, ptr %12, align 8, !tbaa !41
  store ptr %5, ptr %13, align 8, !tbaa !23
  store ptr %6, ptr %14, align 8, !tbaa !9
  call void @llvm.lifetime.start.p0(i64 4, ptr %15) #9
  %21 = load ptr, ptr %12, align 8, !tbaa !41
  %22 = getelementptr inbounds nuw %struct.State, ptr %21, i32 0, i32 1
  %23 = load i32, ptr %22, align 4, !tbaa !57
  %24 = sdiv i32 %23, 8
  store i32 %24, ptr %15, align 4, !tbaa !25
  call void @llvm.lifetime.start.p0(i64 4, ptr %16) #9
  %25 = load ptr, ptr %12, align 8, !tbaa !41
  %26 = getelementptr inbounds nuw %struct.State, ptr %25, i32 0, i32 1
  %27 = load i32, ptr %26, align 4, !tbaa !57
  %28 = and i32 %27, 7
  store i32 %28, ptr %16, align 4, !tbaa !25
  call void @llvm.lifetime.start.p0(i64 4, ptr %17) #9
  store i32 0, ptr %17, align 4, !tbaa !25
  br label %29

29:                                               ; preds = %125, %7
  %30 = load i32, ptr %17, align 4, !tbaa !25
  %31 = load ptr, ptr %12, align 8, !tbaa !41
  %32 = getelementptr inbounds nuw %struct.State, ptr %31, i32 0, i32 3
  %33 = load i32, ptr %32, align 4, !tbaa !64
  %34 = icmp slt i32 %30, %33
  br i1 %34, label %35, label %45

35:                                               ; preds = %29
  %36 = load ptr, ptr %12, align 8, !tbaa !41
  %37 = getelementptr inbounds nuw %struct.State, ptr %36, i32 0, i32 0
  %38 = load i32, ptr %37, align 4, !tbaa !59
  %39 = load i32, ptr %17, align 4, !tbaa !25
  %40 = add nsw i32 %38, %39
  %41 = load ptr, ptr %8, align 8, !tbaa !4
  %42 = getelementptr inbounds nuw %struct.AVCodecContext, ptr %41, i32 0, i32 19
  %43 = load i32, ptr %42, align 4, !tbaa !56
  %44 = icmp slt i32 %40, %43
  br label %45

45:                                               ; preds = %35, %29
  %46 = phi i1 [ false, %29 ], [ %44, %35 ]
  br i1 %46, label %48, label %47

47:                                               ; preds = %45
  store i32 2, ptr %18, align 4
  call void @llvm.lifetime.end.p0(i64 4, ptr %17) #9
  br label %128

48:                                               ; preds = %45
  call void @llvm.lifetime.start.p0(i64 4, ptr %19) #9
  store i32 0, ptr %19, align 4, !tbaa !25
  br label %49

49:                                               ; preds = %121, %48
  %50 = load i32, ptr %19, align 4, !tbaa !25
  %51 = load i32, ptr %10, align 4, !tbaa !25
  %52 = icmp slt i32 %50, %51
  br i1 %52, label %54, label %53

53:                                               ; preds = %49
  store i32 5, ptr %18, align 4
  call void @llvm.lifetime.end.p0(i64 4, ptr %19) #9
  br label %124

54:                                               ; preds = %49
  call void @llvm.lifetime.start.p0(i64 4, ptr %20) #9
  store i32 7, ptr %20, align 4, !tbaa !25
  br label %55

55:                                               ; preds = %117, %54
  %56 = load i32, ptr %20, align 4, !tbaa !25
  %57 = icmp sge i32 %56, 0
  br i1 %57, label %58, label %68

58:                                               ; preds = %55
  %59 = load i32, ptr %19, align 4, !tbaa !25
  %60 = mul nsw i32 %59, 8
  %61 = add nsw i32 %60, 7
  %62 = load i32, ptr %20, align 4, !tbaa !25
  %63 = sub nsw i32 %61, %62
  %64 = load ptr, ptr %8, align 8, !tbaa !4
  %65 = getelementptr inbounds nuw %struct.AVCodecContext, ptr %64, i32 0, i32 18
  %66 = load i32, ptr %65, align 8, !tbaa !40
  %67 = icmp slt i32 %63, %66
  br label %68

68:                                               ; preds = %58, %55
  %69 = phi i1 [ false, %55 ], [ %67, %58 ]
  br i1 %69, label %71, label %70

70:                                               ; preds = %68
  store i32 8, ptr %18, align 4
  call void @llvm.lifetime.end.p0(i64 4, ptr %20) #9
  br label %120

71:                                               ; preds = %68
  %72 = load ptr, ptr %13, align 8, !tbaa !23
  %73 = load i32, ptr %19, align 4, !tbaa !25
  %74 = sext i32 %73 to i64
  %75 = getelementptr inbounds i8, ptr %72, i64 %74
  %76 = load i8, ptr %75, align 1, !tbaa !43
  %77 = zext i8 %76 to i32
  %78 = load i32, ptr %20, align 4, !tbaa !25
  %79 = shl i32 1, %78
  %80 = and i32 %77, %79
  %81 = icmp ne i32 %80, 0
  %82 = xor i1 %81, true
  %83 = xor i1 %82, true
  %84 = zext i1 %83 to i32
  %85 = load i32, ptr %16, align 4, !tbaa !25
  %86 = shl i32 %84, %85
  %87 = load ptr, ptr %14, align 8, !tbaa !9
  %88 = getelementptr inbounds nuw %struct.AVFrame, ptr %87, i32 0, i32 0
  %89 = getelementptr inbounds [8 x ptr], ptr %88, i64 0, i64 0
  %90 = load ptr, ptr %89, align 8, !tbaa !23
  %91 = load ptr, ptr %12, align 8, !tbaa !41
  %92 = getelementptr inbounds nuw %struct.State, ptr %91, i32 0, i32 0
  %93 = load i32, ptr %92, align 4, !tbaa !59
  %94 = load i32, ptr %17, align 4, !tbaa !25
  %95 = add nsw i32 %93, %94
  %96 = load ptr, ptr %14, align 8, !tbaa !9
  %97 = getelementptr inbounds nuw %struct.AVFrame, ptr %96, i32 0, i32 1
  %98 = getelementptr inbounds [8 x i32], ptr %97, i64 0, i64 0
  %99 = load i32, ptr %98, align 8, !tbaa !25
  %100 = mul nsw i32 %95, %99
  %101 = load i32, ptr %19, align 4, !tbaa !25
  %102 = mul nsw i32 %101, 8
  %103 = add nsw i32 %102, 7
  %104 = load i32, ptr %20, align 4, !tbaa !25
  %105 = sub nsw i32 %103, %104
  %106 = load i32, ptr %11, align 4, !tbaa !25
  %107 = mul nsw i32 %105, %106
  %108 = add nsw i32 %100, %107
  %109 = load i32, ptr %15, align 4, !tbaa !25
  %110 = add nsw i32 %108, %109
  %111 = sext i32 %110 to i64
  %112 = getelementptr inbounds i8, ptr %90, i64 %111
  %113 = load i8, ptr %112, align 1, !tbaa !43
  %114 = zext i8 %113 to i32
  %115 = or i32 %114, %86
  %116 = trunc i32 %115 to i8
  store i8 %116, ptr %112, align 1, !tbaa !43
  br label %117

117:                                              ; preds = %71
  %118 = load i32, ptr %20, align 4, !tbaa !25
  %119 = add nsw i32 %118, -1
  store i32 %119, ptr %20, align 4, !tbaa !25
  br label %55, !llvm.loop !73

120:                                              ; preds = %70
  br label %121

121:                                              ; preds = %120
  %122 = load i32, ptr %19, align 4, !tbaa !25
  %123 = add nsw i32 %122, 1
  store i32 %123, ptr %19, align 4, !tbaa !25
  br label %49, !llvm.loop !74

124:                                              ; preds = %53
  br label %125

125:                                              ; preds = %124
  %126 = load i32, ptr %17, align 4, !tbaa !25
  %127 = add nsw i32 %126, 1
  store i32 %127, ptr %17, align 4, !tbaa !25
  br label %29, !llvm.loop !75

128:                                              ; preds = %47
  %129 = load ptr, ptr %12, align 8, !tbaa !41
  %130 = getelementptr inbounds nuw %struct.State, ptr %129, i32 0, i32 1
  %131 = load i32, ptr %130, align 4, !tbaa !57
  %132 = add nsw i32 %131, 1
  store i32 %132, ptr %130, align 4, !tbaa !57
  %133 = load ptr, ptr %12, align 8, !tbaa !41
  %134 = getelementptr inbounds nuw %struct.State, ptr %133, i32 0, i32 1
  %135 = load i32, ptr %134, align 4, !tbaa !57
  %136 = load i32, ptr %9, align 4, !tbaa !25
  %137 = icmp sge i32 %135, %136
  br i1 %137, label %138, label %150

138:                                              ; preds = %128
  %139 = load ptr, ptr %12, align 8, !tbaa !41
  %140 = getelementptr inbounds nuw %struct.State, ptr %139, i32 0, i32 1
  store i32 0, ptr %140, align 4, !tbaa !57
  %141 = load ptr, ptr %12, align 8, !tbaa !41
  %142 = getelementptr inbounds nuw %struct.State, ptr %141, i32 0, i32 3
  %143 = load i32, ptr %142, align 4, !tbaa !64
  %144 = load ptr, ptr %12, align 8, !tbaa !41
  %145 = getelementptr inbounds nuw %struct.State, ptr %144, i32 0, i32 0
  %146 = load i32, ptr %145, align 4, !tbaa !59
  %147 = add nsw i32 %146, %143
  store i32 %147, ptr %145, align 4, !tbaa !59
  %148 = load ptr, ptr %12, align 8, !tbaa !41
  %149 = getelementptr inbounds nuw %struct.State, ptr %148, i32 0, i32 3
  store i32 1, ptr %149, align 4, !tbaa !64
  br label %150

150:                                              ; preds = %138, %128
  call void @llvm.lifetime.end.p0(i64 4, ptr %16) #9
  call void @llvm.lifetime.end.p0(i64 4, ptr %15) #9
  ret void
}