; Function Attrs: nofree norecurse nosync nounwind memory(readwrite, inaccessiblemem: none) uwtable
define internal void @put_lines_bits(ptr noundef readonly captures(none) %0, i32 noundef %1, i32 noundef %2, i32 noundef %3, ptr noundef captures(none) %4, ptr noundef readonly captures(none) %5, ptr noundef readonly captures(none) %6) unnamed_addr #5 {
  %8 = getelementptr inbounds nuw i8, ptr %4, i64 4
  %9 = load i32, ptr %8, align 4, !tbaa !49
  %10 = sdiv i32 %9, 8
  %11 = and i32 %9, 7
  %12 = getelementptr inbounds nuw i8, ptr %4, i64 12
  %13 = load i32, ptr %12, align 4, !tbaa !58
  %14 = icmp sgt i32 %13, 0
  br i1 %14, label %.lr.ph, label %.critedge

.lr.ph:                                           ; preds = %7
  %15 = getelementptr inbounds nuw i8, ptr %0, i64 116
  %16 = icmp slt i32 %2, 1
  %17 = getelementptr inbounds nuw i8, ptr %0, i64 112
  %18 = getelementptr inbounds nuw i8, ptr %6, i64 64
  %19 = load i32, ptr %4, align 4, !tbaa !52
  %20 = load i32, ptr %15, align 4, !tbaa !48
  %21 = icmp sge i32 %19, %20
  %brmerge = select i1 %16, i1 true, i1 %21
  br i1 %brmerge, label %.critedge, label %.preheader39.us.preheader

.preheader39.us.preheader:                        ; preds = %.lr.ph
  %wide.trip.count = zext nneg i32 %2 to i64
  br label %.preheader39.us

22:                                               ; preds = %._crit_edge.us
  %23 = load i32, ptr %4, align 4, !tbaa !52
  %24 = add nsw i32 %23, %54
  %25 = load i32, ptr %15, align 4, !tbaa !48
  %26 = icmp slt i32 %24, %25
  br i1 %26, label %.preheader39.us, label %.critedge.loopexit, !llvm.loop !59

27:                                               ; preds = %.preheader.us, %31
  %.041.us = phi i32 [ 7, %.preheader.us ], [ %50, %31 ]
  %28 = sub nuw nsw i32 %53, %.041.us
  %29 = load i32, ptr %17, align 8, !tbaa !32
  %30 = icmp slt i32 %28, %29
  br i1 %30, label %31, label %.critedge2.us

.critedge2.us:                                    ; preds = %31, %27
  %indvars.iv.next = add nuw nsw i64 %indvars.iv, 1
  %exitcond.not = icmp eq i64 %indvars.iv.next, %wide.trip.count
  br i1 %exitcond.not, label %._crit_edge.us, label %.preheader.us, !llvm.loop !60

31:                                               ; preds = %27
  %32 = load i8, ptr %51, align 1, !tbaa !16
  %33 = zext i8 %32 to i32
  %34 = lshr i32 %33, %.041.us
  %35 = and i32 %34, 1
  %36 = shl nuw nsw i32 %35, %11
  %37 = load ptr, ptr %6, align 8, !tbaa !40
  %38 = load i32, ptr %4, align 4, !tbaa !52
  %39 = add nsw i32 %38, %.03743.us50
  %40 = load i32, ptr %18, align 8, !tbaa !41
  %41 = mul nsw i32 %39, %40
  %42 = mul nsw i32 %28, %3
  %43 = add i32 %42, %10
  %44 = add i32 %43, %41
  %45 = sext i32 %44 to i64
  %46 = getelementptr inbounds i8, ptr %37, i64 %45
  %47 = load i8, ptr %46, align 1, !tbaa !16
  %48 = trunc nuw i32 %36 to i8
  %49 = or i8 %47, %48
  store i8 %49, ptr %46, align 1, !tbaa !16
  %50 = add nsw i32 %.041.us, -1
  %.not56 = icmp eq i32 %.041.us, 0
  br i1 %.not56, label %.critedge2.us, label %27, !llvm.loop !61

.preheader.us:                                    ; preds = %.preheader39.us, %.critedge2.us
  %indvars.iv = phi i64 [ 0, %.preheader39.us ], [ %indvars.iv.next, %.critedge2.us ]
  %51 = getelementptr inbounds nuw i8, ptr %5, i64 %indvars.iv
  %indvars.iv.tr = trunc i64 %indvars.iv to i32
  %52 = shl i32 %indvars.iv.tr, 3
  %53 = or disjoint i32 %52, 7
  br label %27

.preheader39.us:                                  ; preds = %.preheader39.us.preheader, %22
  %.03743.us50 = phi i32 [ %54, %22 ], [ 0, %.preheader39.us.preheader ]
  br label %.preheader.us

._crit_edge.us:                                   ; preds = %.critedge2.us
  %54 = add nuw nsw i32 %.03743.us50, 1
  %55 = load i32, ptr %12, align 4, !tbaa !58
  %56 = icmp slt i32 %54, %55
  br i1 %56, label %22, label %.critedge.loopexit, !llvm.loop !59

.critedge.loopexit:                               ; preds = %._crit_edge.us, %22
  %.pre = load i32, ptr %8, align 4, !tbaa !49
  br label %.critedge

.critedge:                                        ; preds = %.lr.ph, %.critedge.loopexit, %7
  %57 = phi i32 [ %9, %7 ], [ %.pre, %.critedge.loopexit ], [ %9, %.lr.ph ]
  %.lcssa = phi i32 [ %13, %7 ], [ %55, %.critedge.loopexit ], [ %13, %.lr.ph ]
  %58 = add nsw i32 %57, 1
  store i32 %58, ptr %8, align 4, !tbaa !49
  %.not = icmp slt i32 %58, %1
  br i1 %.not, label %62, label %59

59:                                               ; preds = %.critedge
  store i32 0, ptr %8, align 4, !tbaa !49
  %60 = load i32, ptr %4, align 4, !tbaa !52
  %61 = add nsw i32 %60, %.lcssa
  store i32 %61, ptr %4, align 4, !tbaa !52
  store i32 1, ptr %12, align 4, !tbaa !58
  br label %62

62:                                               ; preds = %59, %.critedge
  ret void
}